; ModuleID = '37/705.cpp'
source_filename = "37/705.cpp"
target datalayout = "e-m:e-p270:32:32-p271:32:32-p272:64:64-i64:64-f80:128-n8:16:32:64-S128"
target triple = "x86_64-pc-linux-gnu"

%"class.std::ios_base::Init" = type { i8 }
%"class.std::basic_istream" = type { i32 (...)**, i64, %"class.std::basic_ios" }
%"class.std::basic_ios" = type { %"class.std::ios_base", %"class.std::basic_ostream"*, i8, i8, %"class.std::basic_streambuf"*, %"class.std::ctype"*, %"class.std::num_put"*, %"class.std::num_get"* }
%"class.std::ios_base" = type { i32 (...)**, i64, i64, i32, i32, i32, %"struct.std::ios_base::_Callback_list"*, %"struct.std::ios_base::_Words", [8 x %"struct.std::ios_base::_Words"], i32, %"struct.std::ios_base::_Words"*, %"class.std::locale" }
%"struct.std::ios_base::_Callback_list" = type { %"struct.std::ios_base::_Callback_list"*, void (i32, %"class.std::ios_base"*, i32)*, i32, i32 }
%"struct.std::ios_base::_Words" = type { i8*, i64 }
%"class.std::locale" = type { %"class.std::locale::_Impl"* }
%"class.std::locale::_Impl" = type { i32, %"class.std::locale::facet"**, i64, %"class.std::locale::facet"**, i8** }
%"class.std::locale::facet" = type <{ i32 (...)**, i32, [4 x i8] }>
%"class.std::basic_ostream" = type { i32 (...)**, %"class.std::basic_ios" }
%"class.std::basic_streambuf" = type { i32 (...)**, i8*, i8*, i8*, i8*, i8*, i8*, %"class.std::locale" }
%"class.std::ctype" = type <{ %"class.std::locale::facet.base", [4 x i8], %struct.__locale_struct*, i8, [7 x i8], i32*, i32*, i16*, i8, [256 x i8], [256 x i8], i8, [6 x i8] }>
%"class.std::locale::facet.base" = type <{ i32 (...)**, i32 }>
%struct.__locale_struct = type { [13 x %struct.__locale_data*], i16*, i32*, i32*, [13 x i8*] }
%struct.__locale_data = type opaque
%"class.std::num_put" = type { %"class.std::locale::facet.base", [4 x i8] }
%"class.std::num_get" = type { %"class.std::locale::facet.base", [4 x i8] }

@_ZStL8__ioinit = internal global %"class.std::ios_base::Init" zeroinitializer, align 1
@__dso_handle = external hidden global i8
@_ZSt3cin = external dso_local global %"class.std::basic_istream", align 8
@_ZSt4cout = external dso_local global %"class.std::basic_ostream", align 8
@.str = private unnamed_addr constant [3 x i8] c"no\00", align 1
@llvm.global_ctors = appending global [1 x { i32, void ()*, i8* }] [{ i32, void ()*, i8* } { i32 65535, void ()* @_GLOBAL__sub_I_705.cpp, i8* null }]

; Function Attrs: noinline uwtable
define internal void @__cxx_global_var_init() #0 section ".text.startup" {
  call void @_ZNSt8ios_base4InitC1Ev(%"class.std::ios_base::Init"* @_ZStL8__ioinit)
  %1 = call i32 @__cxa_atexit(void (i8*)* bitcast (void (%"class.std::ios_base::Init"*)* @_ZNSt8ios_base4InitD1Ev to void (i8*)*), i8* getelementptr inbounds (%"class.std::ios_base::Init", %"class.std::ios_base::Init"* @_ZStL8__ioinit, i32 0, i32 0), i8* @__dso_handle) #3
  ret void
}

declare dso_local void @_ZNSt8ios_base4InitC1Ev(%"class.std::ios_base::Init"*) unnamed_addr #1

; Function Attrs: nounwind
declare dso_local void @_ZNSt8ios_base4InitD1Ev(%"class.std::ios_base::Init"*) unnamed_addr #2

; Function Attrs: nounwind
declare dso_local i32 @__cxa_atexit(void (i8*)*, i8*, i8*) #3

; Function Attrs: noinline norecurse uwtable
define dso_local i32 @main() #4 {
  %1 = alloca i32, align 4
  %2 = alloca i8, align 1
  %3 = alloca [26 x [2 x i32]], align 16
  %4 = alloca i32, align 4
  %5 = alloca i32, align 4
  %6 = alloca i32, align 4
  %7 = alloca i32, align 4
  store i32 0, i32* %1, align 4
  %8 = bitcast [26 x [2 x i32]]* %3 to i8*
  call void @llvm.memset.p0i8.i64(i8* align 16 %8, i8 0, i64 208, i1 false)
  store i32 0, i32* %4, align 4
  store i32 26, i32* %7, align 4
  %9 = call dereferenceable(280) %"class.std::basic_istream"* @_ZNSirsERi(%"class.std::basic_istream"* @_ZSt3cin, i32* dereferenceable(4) %6)
  %10 = call i32 @getchar()
  %11 = trunc i32 %10 to i8
  store i8 %11, i8* %2, align 1
  br label %12

12:                                               ; preds = %101, %0
  %13 = load i32, i32* %6, align 4
  %14 = icmp sgt i32 %13, 0
  br i1 %14, label %15, label %104

15:                                               ; preds = %12
  %16 = call i32 @getchar()
  %17 = trunc i32 %16 to i8
  store i8 %17, i8* %2, align 1
  br label %18

18:                                               ; preds = %49, %15
  %19 = load i8, i8* %2, align 1
  %20 = sext i8 %19 to i32
  %21 = icmp ne i32 %20, 10
  br i1 %21, label %22, label %52

22:                                               ; preds = %18
  %23 = load i8, i8* %2, align 1
  %24 = sext i8 %23 to i32
  %25 = sub nsw i32 %24, 97
  %26 = sext i32 %25 to i64
  %27 = getelementptr inbounds [26 x [2 x i32]], [26 x [2 x i32]]* %3, i64 0, i64 %26
  %28 = getelementptr inbounds [2 x i32], [2 x i32]* %27, i64 0, i64 0
  %29 = load i32, i32* %28, align 8
  %30 = add nsw i32 %29, 1
  store i32 %30, i32* %28, align 8
  %31 = load i8, i8* %2, align 1
  %32 = sext i8 %31 to i32
  %33 = sub nsw i32 %32, 97
  %34 = sext i32 %33 to i64
  %35 = getelementptr inbounds [26 x [2 x i32]], [26 x [2 x i32]]* %3, i64 0, i64 %34
  %36 = getelementptr inbounds [2 x i32], [2 x i32]* %35, i64 0, i64 1
  %37 = load i32, i32* %36, align 4
  %38 = icmp eq i32 %37, 0
  br i1 %38, label %39, label %49

39:                                               ; preds = %22
  %40 = load i32, i32* %4, align 4
  %41 = load i8, i8* %2, align 1
  %42 = sext i8 %41 to i32
  %43 = sub nsw i32 %42, 97
  %44 = sext i32 %43 to i64
  %45 = getelementptr inbounds [26 x [2 x i32]], [26 x [2 x i32]]* %3, i64 0, i64 %44
  %46 = getelementptr inbounds [2 x i32], [2 x i32]* %45, i64 0, i64 1
  store i32 %40, i32* %46, align 4
  %47 = load i32, i32* %4, align 4
  %48 = add nsw i32 %47, 1
  store i32 %48, i32* %4, align 4
  br label %49

49:                                               ; preds = %39, %22
  %50 = call i32 @getchar()
  %51 = trunc i32 %50 to i8
  store i8 %51, i8* %2, align 1
  br label %18

52:                                               ; preds = %18
  store i32 0, i32* %4, align 4
  br label %53

53:                                               ; preds = %87, %52
  %54 = load i32, i32* %4, align 4
  %55 = icmp slt i32 %54, 26
  br i1 %55, label %56, label %90

56:                                               ; preds = %53
  %57 = load i32, i32* %4, align 4
  %58 = sext i32 %57 to i64
  %59 = getelementptr inbounds [26 x [2 x i32]], [26 x [2 x i32]]* %3, i64 0, i64 %58
  %60 = getelementptr inbounds [2 x i32], [2 x i32]* %59, i64 0, i64 0
  %61 = load i32, i32* %60, align 8
  %62 = icmp eq i32 %61, 1
  br i1 %62, label %63, label %78

63:                                               ; preds = %56
  %64 = load i32, i32* %4, align 4
  %65 = sext i32 %64 to i64
  %66 = getelementptr inbounds [26 x [2 x i32]], [26 x [2 x i32]]* %3, i64 0, i64 %65
  %67 = getelementptr inbounds [2 x i32], [2 x i32]* %66, i64 0, i64 1
  %68 = load i32, i32* %67, align 4
  %69 = load i32, i32* %7, align 4
  %70 = icmp slt i32 %68, %69
  br i1 %70, label %71, label %78

71:                                               ; preds = %63
  %72 = load i32, i32* %4, align 4
  store i32 %72, i32* %5, align 4
  %73 = load i32, i32* %4, align 4
  %74 = sext i32 %73 to i64
  %75 = getelementptr inbounds [26 x [2 x i32]], [26 x [2 x i32]]* %3, i64 0, i64 %74
  %76 = getelementptr inbounds [2 x i32], [2 x i32]* %75, i64 0, i64 1
  %77 = load i32, i32* %76, align 4
  store i32 %77, i32* %7, align 4
  br label %78

78:                                               ; preds = %71, %63, %56
  %79 = load i32, i32* %4, align 4
  %80 = sext i32 %79 to i64
  %81 = getelementptr inbounds [26 x [2 x i32]], [26 x [2 x i32]]* %3, i64 0, i64 %80
  %82 = getelementptr inbounds [2 x i32], [2 x i32]* %81, i64 0, i64 0
  store i32 0, i32* %82, align 8
  %83 = load i32, i32* %4, align 4
  %84 = sext i32 %83 to i64
  %85 = getelementptr inbounds [26 x [2 x i32]], [26 x [2 x i32]]* %3, i64 0, i64 %84
  %86 = getelementptr inbounds [2 x i32], [2 x i32]* %85, i64 0, i64 1
  store i32 0, i32* %86, align 4
  br label %87

87:                                               ; preds = %78
  %88 = load i32, i32* %4, align 4
  %89 = add nsw i32 %88, 1
  store i32 %89, i32* %4, align 4
  br label %53

90:                                               ; preds = %53
  %91 = load i32, i32* %7, align 4
  %92 = icmp eq i32 %91, 26
  br i1 %92, label %93, label %95

93:                                               ; preds = %90
  %94 = call dereferenceable(272) %"class.std::basic_ostream"* @_ZStlsISt11char_traitsIcEERSt13basic_ostreamIcT_ES5_PKc(%"class.std::basic_ostream"* dereferenceable(272) @_ZSt4cout, i8* getelementptr inbounds ([3 x i8], [3 x i8]* @.str, i64 0, i64 0))
  br label %99

95:                                               ; preds = %90
  %96 = load i32, i32* %5, align 4
  %97 = add nsw i32 %96, 97
  %98 = call i32 @putchar(i32 %97)
  br label %99

99:                                               ; preds = %95, %93
  %100 = call dereferenceable(272) %"class.std::basic_ostream"* @_ZNSolsEPFRSoS_E(%"class.std::basic_ostream"* @_ZSt4cout, %"class.std::basic_ostream"* (%"class.std::basic_ostream"*)* @_ZSt4endlIcSt11char_traitsIcEERSt13basic_ostreamIT_T0_ES6_)
  store i32 26, i32* %7, align 4
  store i32 0, i32* %4, align 4
  br label %101

101:                                              ; preds = %99
  %102 = load i32, i32* %6, align 4
  %103 = add nsw i32 %102, -1
  store i32 %103, i32* %6, align 4
  br label %12

104:                                              ; preds = %12
  ret i32 0
}

; Function Attrs: argmemonly nounwind willreturn
declare void @llvm.memset.p0i8.i64(i8* nocapture writeonly, i8, i64, i1 immarg) #5

declare dso_local dereferenceable(280) %"class.std::basic_istream"* @_ZNSirsERi(%"class.std::basic_istream"*, i32* dereferenceable(4)) #1

declare dso_local i32 @getchar() #1

declare dso_local dereferenceable(272) %"class.std::basic_ostream"* @_ZStlsISt11char_traitsIcEERSt13basic_ostreamIcT_ES5_PKc(%"class.std::basic_ostream"* dereferenceable(272), i8*) #1

declare dso_local i32 @putchar(i32) #1

declare dso_local dereferenceable(272) %"class.std::basic_ostream"* @_ZNSolsEPFRSoS_E(%"class.std::basic_ostream"*, %"class.std::basic_ostream"* (%"class.std::basic_ostream"*)*) #1

declare dso_local dereferenceable(272) %"class.std::basic_ostream"* @_ZSt4endlIcSt11char_traitsIcEERSt13basic_ostreamIT_T0_ES6_(%"class.std::basic_ostream"* dereferenceable(272)) #1

; Function Attrs: noinline uwtable
define internal void @_GLOBAL__sub_I_705.cpp() #0 section ".text.startup" {
  call void @__cxx_global_var_init()
  ret void
}


!llvm.module.flags = !{!0}
!llvm.ident = !{!1}

!0 = !{i32 1, !"wchar_size", i32 4}
!1 = !{!"clang version 10.0.0-4ubuntu1 "}
