; ModuleID = 'source-C-CXX/36/705.cpp'
source_filename = "source-C-CXX/36/705.cpp"
target datalayout = "e-m:e-p270:32:32-p271:32:32-p272:64:64-i64:64-f80:128-n8:16:32:64-S128"
target triple = "x86_64-pc-linux-gnu"

%"class.std::ios_base::Init" = type { i8 }
%"class.std::basic_istream" = type { i32 (...)**, i64, %"class.std::basic_ios" }
%"class.std::basic_ios" = type { %"class.std::ios_base", %"class.std::basic_ostream"*, i8, i8, %"class.std::basic_streambuf"*, %"class.std::ctype"*, %"class.std::num_put"*, %"class.std::num_get"* }
%"class.std::ios_base" = type { i32 (...)**, i64, i64, i32, i32, i32, %"struct.std::ios_base::_Callback_list"*, %"struct.std::ios_base::_Words", [8 x %"struct.std::ios_base::_Words"], i32, %"struct.std::ios_base::_Words"*, %"class.std::locale" }
%"struct.std::ios_base::_Callback_list" = type { %"struct.std::ios_base::_Callback_list"*, void (i32, %"class.std::ios_base"*, i32)*, i32, i32 }
%"struct.std::ios_base::_Words" = type { i8*, i64 }
%"class.std::locale" = type { %"class.std::locale::_Impl"* }
%"class.std::locale::_Impl" = type { i32, %"class.std::locale::facet"**, i64, %"class.std::locale::facet"**, i8** }
%"class.std::locale::facet" = type <{ i32 (...)**, i32, [4 x i8] }>
%"class.std::basic_ostream" = type { i32 (...)**, %"class.std::basic_ios" }
%"class.std::basic_streambuf" = type { i32 (...)**, i8*, i8*, i8*, i8*, i8*, i8*, %"class.std::locale" }
%"class.std::ctype" = type <{ %"class.std::locale::facet.base", [4 x i8], %struct.__locale_struct*, i8, [7 x i8], i32*, i32*, i16*, i8, [256 x i8], [256 x i8], i8, [6 x i8] }>
%"class.std::locale::facet.base" = type <{ i32 (...)**, i32 }>
%struct.__locale_struct = type { [13 x %struct.__locale_data*], i16*, i32*, i32*, [13 x i8*] }
%struct.__locale_data = type opaque
%"class.std::num_put" = type { %"class.std::locale::facet.base", [4 x i8] }
%"class.std::num_get" = type { %"class.std::locale::facet.base", [4 x i8] }
%struct._IO_FILE = type { i32, i8*, i8*, i8*, i8*, i8*, i8*, i8*, i8*, i8*, i8*, i8*, %struct._IO_marker*, %struct._IO_FILE*, i32, i32, i64, i16, i8, [1 x i8], i8*, i64, %struct._IO_codecvt*, %struct._IO_wide_data*, %struct._IO_FILE*, i8*, i64, i32, [20 x i8] }
%struct._IO_marker = type opaque
%struct._IO_codecvt = type opaque
%struct._IO_wide_data = type opaque

@_ZStL8__ioinit = internal global %"class.std::ios_base::Init" zeroinitializer, align 1
@__dso_handle = external hidden global i8
@_ZSt3cin = external global %"class.std::basic_istream", align 8
@_ZSt4cout = external global %"class.std::basic_ostream", align 8
@.str = private unnamed_addr constant [3 x i8] c"no\00", align 1
@stdin = external local_unnamed_addr global %struct._IO_FILE*, align 8
@stdout = external local_unnamed_addr global %struct._IO_FILE*, align 8
@llvm.global_ctors = appending global [1 x { i32, void ()*, i8* }] [{ i32, void ()*, i8* } { i32 65535, void ()* @_GLOBAL__sub_I_705.cpp, i8* null }]

declare void @_ZNSt8ios_base4InitC1Ev(%"class.std::ios_base::Init"* nonnull align 1 dereferenceable(1)) unnamed_addr #0

; Function Attrs: nounwind
declare void @_ZNSt8ios_base4InitD1Ev(%"class.std::ios_base::Init"* nonnull align 1 dereferenceable(1)) unnamed_addr #1

; Function Attrs: nofree nounwind
declare i32 @__cxa_atexit(void (i8*)*, i8*, i8*) local_unnamed_addr #2

; Function Attrs: mustprogress norecurse sspstrong uwtable
define dso_local i32 @main() local_unnamed_addr #3 {
  %1 = alloca [26 x [2 x i32]], align 16
  %2 = alloca i32, align 4
  %3 = bitcast [26 x [2 x i32]]* %1 to i8*
  call void @llvm.lifetime.start.p0i8(i64 208, i8* nonnull %3) #9
  call void @llvm.memset.p0i8.i64(i8* noundef nonnull align 16 dereferenceable(208) %3, i8 0, i64 208, i1 false)
  %4 = bitcast i32* %2 to i8*
  call void @llvm.lifetime.start.p0i8(i64 4, i8* nonnull %4) #9
  %5 = call nonnull align 8 dereferenceable(16) %"class.std::basic_istream"* @_ZNSirsERi(%"class.std::basic_istream"* nonnull align 8 dereferenceable(16) @_ZSt3cin, i32* nonnull align 4 dereferenceable(4) %2)
  %6 = load %struct._IO_FILE*, %struct._IO_FILE** @stdin, align 8, !tbaa !5
  %7 = call i32 @getc(%struct._IO_FILE* %6)
  %8 = load i32, i32* %2, align 4, !tbaa !9
  %9 = icmp sgt i32 %8, 0
  br i1 %9, label %10, label %98

10:                                               ; preds = %0, %91
  %11 = phi i32 [ %107, %91 ], [ undef, %0 ]
  %12 = load %struct._IO_FILE*, %struct._IO_FILE** @stdin, align 8, !tbaa !5
  %13 = call i32 @getc(%struct._IO_FILE* %12)
  %14 = shl i32 %13, 24
  %15 = icmp eq i32 %14, 167772160
  br i1 %15, label %36, label %16

16:                                               ; preds = %10, %30
  %17 = phi i32 [ %34, %30 ], [ %14, %10 ]
  %18 = phi i32 [ %31, %30 ], [ 0, %10 ]
  %19 = ashr exact i32 %17, 24
  %20 = add nsw i32 %19, -97
  %21 = sext i32 %20 to i64
  %22 = getelementptr inbounds [26 x [2 x i32]], [26 x [2 x i32]]* %1, i64 0, i64 %21, i64 0
  %23 = load i32, i32* %22, align 8, !tbaa !9
  %24 = add nsw i32 %23, 1
  store i32 %24, i32* %22, align 8, !tbaa !9
  %25 = getelementptr inbounds [26 x [2 x i32]], [26 x [2 x i32]]* %1, i64 0, i64 %21, i64 1
  %26 = load i32, i32* %25, align 4, !tbaa !9
  %27 = icmp eq i32 %26, 0
  br i1 %27, label %28, label %30

28:                                               ; preds = %16
  store i32 %18, i32* %25, align 4, !tbaa !9
  %29 = add nsw i32 %18, 1
  br label %30

30:                                               ; preds = %28, %16
  %31 = phi i32 [ %29, %28 ], [ %18, %16 ]
  %32 = load %struct._IO_FILE*, %struct._IO_FILE** @stdin, align 8, !tbaa !5
  %33 = call i32 @getc(%struct._IO_FILE* %32)
  %34 = shl i32 %33, 24
  %35 = icmp eq i32 %34, 167772160
  br i1 %35, label %36, label %16, !llvm.loop !11

36:                                               ; preds = %30, %10
  br label %37

37:                                               ; preds = %106, %36
  %38 = phi i64 [ 0, %36 ], [ %110, %106 ]
  %39 = phi i32 [ 26, %36 ], [ %108, %106 ]
  %40 = phi i32 [ %11, %36 ], [ %107, %106 ]
  %41 = getelementptr inbounds [26 x [2 x i32]], [26 x [2 x i32]]* %1, i64 0, i64 %38, i64 0
  %42 = load i32, i32* %41, align 16, !tbaa !9
  %43 = icmp eq i32 %42, 1
  br i1 %43, label %44, label %51

44:                                               ; preds = %37
  %45 = getelementptr inbounds [26 x [2 x i32]], [26 x [2 x i32]]* %1, i64 0, i64 %38, i64 1
  %46 = load i32, i32* %45, align 4, !tbaa !9
  %47 = icmp slt i32 %46, %39
  %48 = trunc i64 %38 to i32
  %49 = select i1 %47, i32 %48, i32 %40
  %50 = select i1 %47, i32 %46, i32 %39
  br label %51

51:                                               ; preds = %44, %37
  %52 = phi i32 [ %40, %37 ], [ %49, %44 ]
  %53 = phi i32 [ %39, %37 ], [ %50, %44 ]
  store i32 0, i32* %41, align 16, !tbaa !9
  %54 = getelementptr inbounds [26 x [2 x i32]], [26 x [2 x i32]]* %1, i64 0, i64 %38, i64 1
  store i32 0, i32* %54, align 4, !tbaa !9
  %55 = or i64 %38, 1
  %56 = getelementptr inbounds [26 x [2 x i32]], [26 x [2 x i32]]* %1, i64 0, i64 %55, i64 0
  %57 = load i32, i32* %56, align 8, !tbaa !9
  %58 = icmp eq i32 %57, 1
  br i1 %58, label %99, label %106

59:                                               ; preds = %106
  %60 = icmp eq i32 %108, 26
  br i1 %60, label %61, label %63

61:                                               ; preds = %59
  %62 = call nonnull align 8 dereferenceable(8) %"class.std::basic_ostream"* @_ZSt16__ostream_insertIcSt11char_traitsIcEERSt13basic_ostreamIT_T0_ES6_PKS3_l(%"class.std::basic_ostream"* nonnull align 8 dereferenceable(8) @_ZSt4cout, i8* nonnull getelementptr inbounds ([3 x i8], [3 x i8]* @.str, i64 0, i64 0), i64 2)
  br label %67

63:                                               ; preds = %59
  %64 = add nsw i32 %107, 97
  %65 = load %struct._IO_FILE*, %struct._IO_FILE** @stdout, align 8, !tbaa !5
  %66 = call i32 @putc(i32 %64, %struct._IO_FILE* %65)
  br label %67

67:                                               ; preds = %63, %61
  %68 = load i8*, i8** bitcast (%"class.std::basic_ostream"* @_ZSt4cout to i8**), align 8, !tbaa !13
  %69 = getelementptr i8, i8* %68, i64 -24
  %70 = bitcast i8* %69 to i64*
  %71 = load i64, i64* %70, align 8
  %72 = add nsw i64 %71, 240
  %73 = getelementptr inbounds i8, i8* bitcast (%"class.std::basic_ostream"* @_ZSt4cout to i8*), i64 %72
  %74 = bitcast i8* %73 to %"class.std::ctype"**
  %75 = load %"class.std::ctype"*, %"class.std::ctype"** %74, align 8, !tbaa !15
  %76 = icmp eq %"class.std::ctype"* %75, null
  br i1 %76, label %77, label %78

77:                                               ; preds = %67
  call void @_ZSt16__throw_bad_castv() #10
  unreachable

78:                                               ; preds = %67
  %79 = getelementptr inbounds %"class.std::ctype", %"class.std::ctype"* %75, i64 0, i32 8
  %80 = load i8, i8* %79, align 8, !tbaa !18
  %81 = icmp eq i8 %80, 0
  br i1 %81, label %85, label %82

82:                                               ; preds = %78
  %83 = getelementptr inbounds %"class.std::ctype", %"class.std::ctype"* %75, i64 0, i32 9, i64 10
  %84 = load i8, i8* %83, align 1, !tbaa !20
  br label %91

85:                                               ; preds = %78
  call void @_ZNKSt5ctypeIcE13_M_widen_initEv(%"class.std::ctype"* nonnull align 8 dereferenceable(570) %75)
  %86 = bitcast %"class.std::ctype"* %75 to i8 (%"class.std::ctype"*, i8)***
  %87 = load i8 (%"class.std::ctype"*, i8)**, i8 (%"class.std::ctype"*, i8)*** %86, align 8, !tbaa !13
  %88 = getelementptr inbounds i8 (%"class.std::ctype"*, i8)*, i8 (%"class.std::ctype"*, i8)** %87, i64 6
  %89 = load i8 (%"class.std::ctype"*, i8)*, i8 (%"class.std::ctype"*, i8)** %88, align 8
  %90 = call signext i8 %89(%"class.std::ctype"* nonnull align 8 dereferenceable(570) %75, i8 signext 10)
  br label %91

91:                                               ; preds = %82, %85
  %92 = phi i8 [ %84, %82 ], [ %90, %85 ]
  %93 = call nonnull align 8 dereferenceable(8) %"class.std::basic_ostream"* @_ZNSo3putEc(%"class.std::basic_ostream"* nonnull align 8 dereferenceable(8) @_ZSt4cout, i8 signext %92)
  %94 = call nonnull align 8 dereferenceable(8) %"class.std::basic_ostream"* @_ZNSo5flushEv(%"class.std::basic_ostream"* nonnull align 8 dereferenceable(8) %93)
  %95 = load i32, i32* %2, align 4, !tbaa !9
  %96 = add nsw i32 %95, -1
  store i32 %96, i32* %2, align 4, !tbaa !9
  %97 = icmp sgt i32 %95, 1
  br i1 %97, label %10, label %98, !llvm.loop !21

98:                                               ; preds = %91, %0
  call void @llvm.lifetime.end.p0i8(i64 4, i8* nonnull %4) #9
  call void @llvm.lifetime.end.p0i8(i64 208, i8* nonnull %3) #9
  ret i32 0

99:                                               ; preds = %51
  %100 = getelementptr inbounds [26 x [2 x i32]], [26 x [2 x i32]]* %1, i64 0, i64 %55, i64 1
  %101 = load i32, i32* %100, align 4, !tbaa !9
  %102 = icmp slt i32 %101, %53
  %103 = trunc i64 %55 to i32
  %104 = select i1 %102, i32 %103, i32 %52
  %105 = select i1 %102, i32 %101, i32 %53
  br label %106

106:                                              ; preds = %99, %51
  %107 = phi i32 [ %52, %51 ], [ %104, %99 ]
  %108 = phi i32 [ %53, %51 ], [ %105, %99 ]
  store i32 0, i32* %56, align 8, !tbaa !9
  %109 = getelementptr inbounds [26 x [2 x i32]], [26 x [2 x i32]]* %1, i64 0, i64 %55, i64 1
  store i32 0, i32* %109, align 4, !tbaa !9
  %110 = add nuw nsw i64 %38, 2
  %111 = icmp eq i64 %110, 26
  br i1 %111, label %59, label %37, !llvm.loop !22
}

; Function Attrs: argmemonly mustprogress nofree nosync nounwind willreturn
declare void @llvm.lifetime.start.p0i8(i64 immarg, i8* nocapture) #4

; Function Attrs: argmemonly mustprogress nofree nounwind willreturn writeonly
declare void @llvm.memset.p0i8.i64(i8* nocapture writeonly, i8, i64, i1 immarg) #5

declare nonnull align 8 dereferenceable(16) %"class.std::basic_istream"* @_ZNSirsERi(%"class.std::basic_istream"* nonnull align 8 dereferenceable(16), i32* nonnull align 4 dereferenceable(4)) local_unnamed_addr #0

; Function Attrs: argmemonly mustprogress nofree nosync nounwind willreturn
declare void @llvm.lifetime.end.p0i8(i64 immarg, i8* nocapture) #4

; Function Attrs: nofree nounwind
declare noundef i32 @getc(%struct._IO_FILE* nocapture noundef) local_unnamed_addr #6

; Function Attrs: nofree nounwind
declare noundef i32 @putc(i32 noundef, %struct._IO_FILE* nocapture noundef) local_unnamed_addr #6

declare nonnull align 8 dereferenceable(8) %"class.std::basic_ostream"* @_ZSt16__ostream_insertIcSt11char_traitsIcEERSt13basic_ostreamIT_T0_ES6_PKS3_l(%"class.std::basic_ostream"* nonnull align 8 dereferenceable(8), i8*, i64) local_unnamed_addr #0

declare nonnull align 8 dereferenceable(8) %"class.std::basic_ostream"* @_ZNSo3putEc(%"class.std::basic_ostream"* nonnull align 8 dereferenceable(8), i8 signext) local_unnamed_addr #0

declare nonnull align 8 dereferenceable(8) %"class.std::basic_ostream"* @_ZNSo5flushEv(%"class.std::basic_ostream"* nonnull align 8 dereferenceable(8)) local_unnamed_addr #0

; Function Attrs: noreturn
declare void @_ZSt16__throw_bad_castv() local_unnamed_addr #7

declare void @_ZNKSt5ctypeIcE13_M_widen_initEv(%"class.std::ctype"* nonnull align 8 dereferenceable(570)) local_unnamed_addr #0

; Function Attrs: sspstrong uwtable
define internal void @_GLOBAL__sub_I_705.cpp() #8 section ".text.startup" {
  tail call void @_ZNSt8ios_base4InitC1Ev(%"class.std::ios_base::Init"* nonnull align 1 dereferenceable(1) @_ZStL8__ioinit)
  %1 = tail call i32 @__cxa_atexit(void (i8*)* bitcast (void (%"class.std::ios_base::Init"*)* @_ZNSt8ios_base4InitD1Ev to void (i8*)*), i8* getelementptr inbounds (%"class.std::ios_base::Init", %"class.std::ios_base::Init"* @_ZStL8__ioinit, i64 0, i32 0), i8* nonnull @__dso_handle) #9
  ret void
}


!llvm.module.flags = !{!0, !1, !2, !3}
!llvm.ident = !{!4}

!0 = !{i32 1, !"wchar_size", i32 4}
!1 = !{i32 7, !"PIC Level", i32 2}
!2 = !{i32 7, !"PIE Level", i32 2}
!3 = !{i32 7, !"uwtable", i32 1}
!4 = !{!"clang version 13.0.0"}
!5 = !{!6, !6, i64 0}
!6 = !{!"any pointer", !7, i64 0}
!7 = !{!"omnipotent char", !8, i64 0}
!8 = !{!"Simple C++ TBAA"}
!9 = !{!10, !10, i64 0}
!10 = !{!"int", !7, i64 0}
!11 = distinct !{!11, !12}
!12 = !{!"llvm.loop.mustprogress"}
!13 = !{!14, !14, i64 0}
!14 = !{!"vtable pointer", !8, i64 0}
!15 = !{!16, !6, i64 240}
!16 = !{!"_ZTSSt9basic_iosIcSt11char_traitsIcEE", !6, i64 216, !7, i64 224, !17, i64 225, !6, i64 232, !6, i64 240, !6, i64 248, !6, i64 256}
!17 = !{!"bool", !7, i64 0}
!18 = !{!19, !7, i64 56}
!19 = !{!"_ZTSSt5ctypeIcE", !6, i64 16, !17, i64 24, !6, i64 32, !6, i64 40, !6, i64 48, !7, i64 56, !7, i64 57, !7, i64 313, !7, i64 569}
!20 = !{!7, !7, i64 0}
!21 = distinct !{!21, !12}
!22 = distinct !{!22, !12}
